target datalayout = "e-m:e-p270:32:32-p271:32:32-p272:64:64-i64:64-i128:128-f80:128-n8:16:32:64-S128"
target triple = "x86_64-pc-linux-gnu"

%struct.macroblockd = type { i32, i32, i32, i8, [3 x %struct.macroblockd_plane], %struct.TileInfo, ptr, i8, i8, i8, i8, ptr, ptr, ptr, ptr, ptr, i32, i32, i32, i32, i32, [2 x ptr], ptr, [3 x ptr], [3 x [32 x i8]], ptr, [32 x i8], ptr, ptr, [32 x i8], [3 x %struct.WienerInfo], [3 x %struct.SgrprojInfo], i8, i8, [29 x [8 x %struct.candidate_mv]], [29 x [8 x i16]], i8, i8, [8 x i8], ptr, i32, [8 x i32], [8 x i32], i32, i32, ptr, ptr, i8, [4 x i8], [4 x i8], [7 x i8], [32768 x i8], %struct.cfl_ctx, [2 x i16], ptr, [2 x ptr] }
%struct.macroblockd_plane = type { i8, i32, i32, %struct.buf_2d, [2 x %struct.buf_2d], ptr, ptr, [8 x [2 x i16]], ptr, i8, i8, [8 x [19 x ptr]], [8 x [19 x ptr]] }
%struct.buf_2d = type { ptr, ptr, i32, i32, i32 }
%struct.TileInfo = type { i32, i32, i32, i32, i32, i32 }
%struct.WienerInfo = type { [8 x i16], [8 x i16] }
%struct.SgrprojInfo = type { i32, [2 x i32] }
%struct.candidate_mv = type { %union.int_mv, %union.int_mv }
%union.int_mv = type { i32 }
%struct.cfl_ctx = type { [1024 x i16], [1024 x i16], [2 x i32], i32, [2 x [32 x i16]], i32, i32, i32, i32, i32, i32 }
%struct.MB_MODE_INFO = type <{ i8, i8, i8, i8, i32, [2 x %union.int_mv], [2 x i8], [2 x i8], %union.int_interpfilters, i8, i8, i8, i8, %struct.WarpedMotionParams, i8, i8, [6 x i8], %struct.INTERINTER_COMPOUND_DATA, [2 x i8], %struct.FILTER_INTRA_MODE_INFO, i8, i8, %struct.PALETTE_MODE_INFO, i8, i8, [16 x i8], i8, [4 x i8], i16, [7 x i8] }>
%union.int_interpfilters = type { i32 }
%struct.WarpedMotionParams = type { [8 x i32], i16, i16, i16, i16, i8, i8 }
%struct.INTERINTER_COMPOUND_DATA = type { ptr, i8, i8, i8, i8 }
%struct.FILTER_INTRA_MODE_INFO = type { i8, i8 }
%struct.PALETTE_MODE_INFO = type { [24 x i16], [2 x i8] }

@tx_size_wide = internal constant [19 x i32] [i32 4, i32 8, i32 16, i32 32, i32 64, i32 4, i32 8, i32 8, i32 16, i32 16, i32 32, i32 32, i32 64, i32 4, i32 16, i32 8, i32 32, i32 16, i32 64], align 16
@get_uv_mode.uv2y = internal constant [16 x i8] c"\00\01\02\03\04\05\06\07\08\09\0A\0B\0C\00\19\19", align 16

; Function Attrs: nounwind uwtable
define internal zeroext i8 @get_cfl_pred_type(i8 noundef zeroext %0) #0 {
  %2 = alloca i8, align 1
  store i8 %0, ptr %2, align 1
  %3 = load i8, ptr %2, align 1
  %4 = zext i8 %3 to i32
  %5 = sub nsw i32 %4, 1
  %6 = trunc i32 %5 to i8
  ret i8 %6
}

; Function Attrs: nounwind uwtable
define internal zeroext i8 @get_uv_mode(i8 noundef zeroext %0) #0 {
  %2 = alloca i8, align 1
  store i8 %0, ptr %2, align 1
  %3 = load i8, ptr %2, align 1
  %4 = zext i8 %3 to i64
  %5 = getelementptr inbounds [16 x i8], ptr @get_uv_mode.uv2y, i64 0, i64 %4
  %6 = load i8, ptr %5, align 1
  ret i8 %6
}

; Function Attrs: nounwind uwtable
define hidden void @av1_predict_intra_block_facade(ptr noundef %0, ptr noundef %1, i32 noundef %2, i32 noundef %3, i32 noundef %4, i8 noundef zeroext %5) #0 {
  %7 = alloca ptr, align 8
  %8 = alloca ptr, align 8
  %9 = alloca i32, align 4
  %10 = alloca i32, align 4
  %11 = alloca i32, align 4
  %12 = alloca i8, align 1
  %13 = alloca ptr, align 8
  %14 = alloca ptr, align 8
  %15 = alloca i32, align 4
  %16 = alloca ptr, align 8
  %17 = alloca i8, align 1
  %18 = alloca i32, align 4
  %19 = alloca i8, align 1
  %20 = alloca i32, align 4
  %21 = alloca ptr, align 8
  %22 = alloca i8, align 1
  store ptr %0, ptr %7, align 8
  store ptr %1, ptr %8, align 8
  store i32 %2, ptr %9, align 4
  store i32 %3, ptr %10, align 4
  store i32 %4, ptr %11, align 4
  store i8 %5, ptr %12, align 1
  %23 = load ptr, ptr %8, align 8
  %24 = getelementptr inbounds nuw %struct.macroblockd, ptr %23, i32 0, i32 6
  %25 = load ptr, ptr %24, align 8
  %26 = getelementptr inbounds ptr, ptr %25, i64 0
  %27 = load ptr, ptr %26, align 8
  store ptr %27, ptr %13, align 8
  %28 = load ptr, ptr %8, align 8
  %29 = getelementptr inbounds nuw %struct.macroblockd, ptr %28, i32 0, i32 4
  %30 = load i32, ptr %9, align 4
  %31 = sext i32 %30 to i64
  %32 = getelementptr inbounds [3 x %struct.macroblockd_plane], ptr %29, i64 0, i64 %31
  store ptr %32, ptr %14, align 8
  %33 = load ptr, ptr %14, align 8
  %34 = getelementptr inbounds nuw %struct.macroblockd_plane, ptr %33, i32 0, i32 3
  %35 = getelementptr inbounds nuw %struct.buf_2d, ptr %34, i32 0, i32 4
  %36 = load i32, ptr %35, align 8
  store i32 %36, ptr %15, align 4
  %37 = load ptr, ptr %14, align 8
  %38 = getelementptr inbounds nuw %struct.macroblockd_plane, ptr %37, i32 0, i32 3
  %39 = getelementptr inbounds nuw %struct.buf_2d, ptr %38, i32 0, i32 0
  %40 = load ptr, ptr %39, align 8
  %41 = load i32, ptr %11, align 4
  %42 = load i32, ptr %15, align 4
  %43 = mul nsw i32 %41, %42
  %44 = load i32, ptr %10, align 4
  %45 = add nsw i32 %43, %44
  %46 = shl i32 %45, 2
  %47 = sext i32 %46 to i64
  %48 = getelementptr inbounds i8, ptr %40, i64 %47
  store ptr %48, ptr %16, align 8
  %49 = load i32, ptr %9, align 4
  %50 = icmp eq i32 %49, 0
  br i1 %50, label %51, label %56

51:                                               ; preds = %6
  %52 = load ptr, ptr %13, align 8
  %53 = getelementptr inbounds nuw %struct.MB_MODE_INFO, ptr %52, i32 0, i32 2
  %54 = load i8, ptr %53, align 2
  %55 = zext i8 %54 to i32
  br label %62

56:                                               ; preds = %6
  %57 = load ptr, ptr %13, align 8
  %58 = getelementptr inbounds nuw %struct.MB_MODE_INFO, ptr %57, i32 0, i32 3
  %59 = load i8, ptr %58, align 1
  %60 = call zeroext i8 @get_uv_mode(i8 noundef zeroext %59)
  %61 = zext i8 %60 to i32
  br label %62

62:                                               ; preds = %56, %51
  %63 = phi i32 [ %55, %51 ], [ %61, %56 ]
  %64 = trunc i32 %63 to i8
  store i8 %64, ptr %17, align 1
  %65 = load ptr, ptr %13, align 8
  %66 = getelementptr inbounds nuw %struct.MB_MODE_INFO, ptr %65, i32 0, i32 22
  %67 = getelementptr inbounds nuw %struct.PALETTE_MODE_INFO, ptr %66, i32 0, i32 1
  %68 = load i32, ptr %9, align 4
  %69 = icmp ne i32 %68, 0
  %70 = zext i1 %69 to i32
  %71 = sext i32 %70 to i64
  %72 = getelementptr inbounds [2 x i8], ptr %67, i64 0, i64 %71
  %73 = load i8, ptr %72, align 1
  %74 = zext i8 %73 to i32
  %75 = icmp sgt i32 %74, 0
  %76 = zext i1 %75 to i32
  store i32 %76, ptr %18, align 4
  %77 = load i32, ptr %9, align 4
  %78 = icmp eq i32 %77, 0
  br i1 %78, label %79, label %92

79:                                               ; preds = %62
  %80 = load ptr, ptr %13, align 8
  %81 = getelementptr inbounds nuw %struct.MB_MODE_INFO, ptr %80, i32 0, i32 19
  %82 = getelementptr inbounds nuw %struct.FILTER_INTRA_MODE_INFO, ptr %81, i32 0, i32 1
  %83 = load i8, ptr %82, align 1
  %84 = zext i8 %83 to i32
  %85 = icmp ne i32 %84, 0
  br i1 %85, label %86, label %92

86:                                               ; preds = %79
  %87 = load ptr, ptr %13, align 8
  %88 = getelementptr inbounds nuw %struct.MB_MODE_INFO, ptr %87, i32 0, i32 19
  %89 = getelementptr inbounds nuw %struct.FILTER_INTRA_MODE_INFO, ptr %88, i32 0, i32 0
  %90 = load i8, ptr %89, align 2
  %91 = zext i8 %90 to i32
  br label %93

92:                                               ; preds = %79, %62
  br label %93

93:                                               ; preds = %92, %86
  %94 = phi i32 [ %91, %86 ], [ 5, %92 ]
  %95 = trunc i32 %94 to i8
  store i8 %95, ptr %19, align 1
  %96 = load ptr, ptr %13, align 8
  %97 = getelementptr inbounds nuw %struct.MB_MODE_INFO, ptr %96, i32 0, i32 18
  %98 = load i32, ptr %9, align 4
  %99 = icmp ne i32 %98, 0
  %100 = zext i1 %99 to i32
  %101 = sext i32 %100 to i64
  %102 = getelementptr inbounds [2 x i8], ptr %97, i64 0, i64 %101
  %103 = load i8, ptr %102, align 1
  %104 = sext i8 %103 to i32
  %105 = mul nsw i32 %104, 3
  store i32 %105, ptr %20, align 4
  %106 = load i32, ptr %9, align 4
  %107 = icmp ne i32 %106, 0
  br i1 %107, label %108, label %180

108:                                              ; preds = %93
  %109 = load ptr, ptr %13, align 8
  %110 = getelementptr inbounds nuw %struct.MB_MODE_INFO, ptr %109, i32 0, i32 3
  %111 = load i8, ptr %110, align 1
  %112 = zext i8 %111 to i32
  %113 = icmp eq i32 %112, 13
  br i1 %113, label %114, label %180

114:                                              ; preds = %108
  %115 = load ptr, ptr %8, align 8
  %116 = getelementptr inbounds nuw %struct.macroblockd, ptr %115, i32 0, i32 52
  store ptr %116, ptr %21, align 8
  %117 = load i32, ptr %9, align 4
  %118 = trunc i32 %117 to i8
  %119 = call zeroext i8 @get_cfl_pred_type(i8 noundef zeroext %118)
  store i8 %119, ptr %22, align 1
  %120 = load ptr, ptr %21, align 8
  %121 = getelementptr inbounds nuw %struct.cfl_ctx, ptr %120, i32 0, i32 2
  %122 = load i8, ptr %22, align 1
  %123 = zext i8 %122 to i64
  %124 = getelementptr inbounds [2 x i32], ptr %121, i64 0, i64 %123
  %125 = load i32, ptr %124, align 4
  %126 = icmp eq i32 %125, 0
  br i1 %126, label %127, label %168

127:                                              ; preds = %114
  %128 = load ptr, ptr %7, align 8
  %129 = load ptr, ptr %8, align 8
  %130 = load ptr, ptr %14, align 8
  %131 = getelementptr inbounds nuw %struct.macroblockd_plane, ptr %130, i32 0, i32 9
  %132 = load i8, ptr %131, align 8
  %133 = zext i8 %132 to i32
  %134 = load ptr, ptr %14, align 8
  %135 = getelementptr inbounds nuw %struct.macroblockd_plane, ptr %134, i32 0, i32 10
  %136 = load i8, ptr %135, align 1
  %137 = zext i8 %136 to i32
  %138 = load i8, ptr %12, align 1
  %139 = load i8, ptr %17, align 1
  %140 = load i32, ptr %20, align 4
  %141 = load i32, ptr %18, align 4
  %142 = load i8, ptr %19, align 1
  %143 = load ptr, ptr %16, align 8
  %144 = load i32, ptr %15, align 4
  %145 = load ptr, ptr %16, align 8
  %146 = load i32, ptr %15, align 4
  %147 = load i32, ptr %10, align 4
  %148 = load i32, ptr %11, align 4
  %149 = load i32, ptr %9, align 4
  call void @av1_predict_intra_block(ptr noundef %128, ptr noundef %129, i32 noundef %133, i32 noundef %137, i8 noundef zeroext %138, i8 noundef zeroext %139, i32 noundef %140, i32 noundef %141, i8 noundef zeroext %142, ptr noundef %143, i32 noundef %144, ptr noundef %145, i32 noundef %146, i32 noundef %147, i32 noundef %148, i32 noundef %149)
  %150 = load ptr, ptr %21, align 8
  %151 = getelementptr inbounds nuw %struct.cfl_ctx, ptr %150, i32 0, i32 3
  %152 = load i32, ptr %151, align 4
  %153 = icmp ne i32 %152, 0
  br i1 %153, label %154, label %167

154:                                              ; preds = %127
  %155 = load ptr, ptr %8, align 8
  %156 = load ptr, ptr %16, align 8
  %157 = load i8, ptr %22, align 1
  %158 = load i8, ptr %12, align 1
  %159 = zext i8 %158 to i64
  %160 = getelementptr inbounds [19 x i32], ptr @tx_size_wide, i64 0, i64 %159
  %161 = load i32, ptr %160, align 4
  call void @cfl_store_dc_pred(ptr noundef %155, ptr noundef %156, i8 noundef zeroext %157, i32 noundef %161)
  %162 = load ptr, ptr %21, align 8
  %163 = getelementptr inbounds nuw %struct.cfl_ctx, ptr %162, i32 0, i32 2
  %164 = load i8, ptr %22, align 1
  %165 = zext i8 %164 to i64
  %166 = getelementptr inbounds [2 x i32], ptr %163, i64 0, i64 %165
  store i32 1, ptr %166, align 4
  br label %167

167:                                              ; preds = %154, %127
  br label %174

168:                                              ; preds = %114
  %169 = load ptr, ptr %8, align 8
  %170 = load ptr, ptr %16, align 8
  %171 = load i32, ptr %15, align 4
  %172 = load i8, ptr %12, align 1
  %173 = load i8, ptr %22, align 1
  call void @cfl_load_dc_pred(ptr noundef %169, ptr noundef %170, i32 noundef %171, i8 noundef zeroext %172, i8 noundef zeroext %173)
  br label %174

174:                                              ; preds = %168, %167
  %175 = load ptr, ptr %8, align 8
  %176 = load ptr, ptr %16, align 8
  %177 = load i32, ptr %15, align 4
  %178 = load i8, ptr %12, align 1
  %179 = load i32, ptr %9, align 4
  call void @cfl_predict_block(ptr noundef %175, ptr noundef %176, i32 noundef %177, i8 noundef zeroext %178, i32 noundef %179)
  br label %203

180:                                              ; preds = %108, %93
  %181 = load ptr, ptr %7, align 8
  %182 = load ptr, ptr %8, align 8
  %183 = load ptr, ptr %14, align 8
  %184 = getelementptr inbounds nuw %struct.macroblockd_plane, ptr %183, i32 0, i32 9
  %185 = load i8, ptr %184, align 8
  %186 = zext i8 %185 to i32
  %187 = load ptr, ptr %14, align 8
  %188 = getelementptr inbounds nuw %struct.macroblockd_plane, ptr %187, i32 0, i32 10
  %189 = load i8, ptr %188, align 1
  %190 = zext i8 %189 to i32
  %191 = load i8, ptr %12, align 1
  %192 = load i8, ptr %17, align 1
  %193 = load i32, ptr %20, align 4
  %194 = load i32, ptr %18, align 4
  %195 = load i8, ptr %19, align 1
  %196 = load ptr, ptr %16, align 8
  %197 = load i32, ptr %15, align 4
  %198 = load ptr, ptr %16, align 8
  %199 = load i32, ptr %15, align 4
  %200 = load i32, ptr %10, align 4
  %201 = load i32, ptr %11, align 4
  %202 = load i32, ptr %9, align 4
  call void @av1_predict_intra_block(ptr noundef %181, ptr noundef %182, i32 noundef %186, i32 noundef %190, i8 noundef zeroext %191, i8 noundef zeroext %192, i32 noundef %193, i32 noundef %194, i8 noundef zeroext %195, ptr noundef %196, i32 noundef %197, ptr noundef %198, i32 noundef %199, i32 noundef %200, i32 noundef %201, i32 noundef %202)
  br label %203

203:                                              ; preds = %180, %174
  ret void
}