; Function Attrs: nounwind uwtable
define hidden void @av1_predict_intra_block_facade(ptr nocapture noundef readonly %0, ptr noundef %1, i32 noundef %2, i32 noundef %3, i32 noundef %4, i8 noundef zeroext %5) local_unnamed_addr #3 {
  %7 = getelementptr inbounds nuw i8, ptr %1, i64 7864
  %8 = load ptr, ptr %7, align 8
  %9 = load ptr, ptr %8, align 8
  %10 = getelementptr inbounds nuw i8, ptr %1, i64 16
  %11 = sext i32 %2 to i64
  %12 = getelementptr inbounds [3 x %struct.macroblockd_plane], ptr %10, i64 0, i64 %11
  %13 = getelementptr inbounds nuw i8, ptr %12, i64 16
  %14 = getelementptr inbounds i8, ptr %12, i64 40
  %15 = load i32, ptr %14, align 8
  %16 = load ptr, ptr %13, align 8
  %17 = mul nsw i32 %15, %4
  %18 = add nsw i32 %17, %3
  %19 = shl i32 %18, 2
  %20 = sext i32 %19 to i64
  %21 = getelementptr inbounds i8, ptr %16, i64 %20
  %22 = icmp eq i32 %2, 0
  br i1 %22, label %38, label %23

23:                                               ; preds = %6
  %24 = getelementptr inbounds nuw i8, ptr %9, i64 3
  %25 = load i8, ptr %24, align 1
  %26 = zext i8 %25 to i64
  %27 = getelementptr inbounds [16 x i8], ptr @get_uv_mode.uv2y, i64 0, i64 %26
  %28 = load i8, ptr %27, align 1
  %29 = getelementptr inbounds i8, ptr %9, i64 151
  %30 = load i8, ptr %29, align 1
  %31 = icmp ne i8 %30, 0
  %32 = zext i1 %31 to i32
  %33 = getelementptr inbounds i8, ptr %9, i64 97
  %34 = load i8, ptr %33, align 1
  %35 = sext i8 %34 to i32
  %36 = mul nsw i32 %35, 3
  %37 = icmp eq i8 %25, 13
  br i1 %37, label %64, label %.split72

38:                                               ; preds = %6
  %39 = getelementptr inbounds nuw i8, ptr %9, i64 2
  %40 = load i8, ptr %39, align 2
  %41 = getelementptr inbounds i8, ptr %9, i64 150
  %42 = load i8, ptr %41, align 1
  %43 = icmp ne i8 %42, 0
  %44 = zext i1 %43 to i32
  %45 = getelementptr inbounds i8, ptr %9, i64 99
  %46 = load i8, ptr %45, align 1
  %.not = icmp eq i8 %46, 0
  br i1 %.not, label %.split, label %47

47:                                               ; preds = %38
  %48 = getelementptr inbounds nuw i8, ptr %9, i64 98
  %49 = load i8, ptr %48, align 2
  br label %.split

.split:                                           ; preds = %38, %47
  %50 = phi i8 [ %49, %47 ], [ 5, %38 ]
  %.in.in.in = getelementptr inbounds nuw i8, ptr %9, i64 96
  %.in.in = load i8, ptr %.in.in.in, align 1
  %.in = sext i8 %.in.in to i32
  %51 = mul nsw i32 %.in, 3
  %52 = getelementptr inbounds nuw i8, ptr %12, i64 168
  %53 = load i8, ptr %52, align 8
  %54 = zext i8 %53 to i32
  %55 = getelementptr inbounds nuw i8, ptr %12, i64 169
  %56 = load i8, ptr %55, align 1
  %57 = zext i8 %56 to i32
  tail call void @av1_predict_intra_block(ptr noundef %0, ptr noundef nonnull %1, i32 noundef %54, i32 noundef %57, i8 noundef zeroext %5, i8 noundef zeroext %40, i32 noundef %51, i32 noundef %44, i8 noundef zeroext %50, ptr noundef %21, i32 noundef %15, ptr noundef %21, i32 noundef %15, i32 noundef %3, i32 noundef %4, i32 noundef 0)
  br label %87

.split72:                                         ; preds = %23
  %58 = getelementptr inbounds nuw i8, ptr %12, i64 168
  %59 = load i8, ptr %58, align 8
  %60 = zext i8 %59 to i32
  %61 = getelementptr inbounds nuw i8, ptr %12, i64 169
  %62 = load i8, ptr %61, align 1
  %63 = zext i8 %62 to i32
  tail call void @av1_predict_intra_block(ptr noundef %0, ptr noundef nonnull %1, i32 noundef %60, i32 noundef %63, i8 noundef zeroext %5, i8 noundef zeroext %28, i32 noundef %36, i32 noundef %32, i8 noundef zeroext 5, ptr noundef %21, i32 noundef %15, ptr noundef %21, i32 noundef %15, i32 noundef %3, i32 noundef %4, i32 noundef %2)
  br label %87

64:                                               ; preds = %23
  %65 = trunc i32 %2 to i8
  %66 = add i8 %65, -1
  %67 = getelementptr inbounds i8, ptr %1, i64 47632
  %68 = zext i8 %66 to i64
  %69 = getelementptr inbounds [2 x i32], ptr %67, i64 0, i64 %68
  %70 = load i32, ptr %69, align 4
  %71 = icmp eq i32 %70, 0
  br i1 %71, label %72, label %85

72:                                               ; preds = %64
  %73 = getelementptr inbounds nuw i8, ptr %12, i64 168
  %74 = load i8, ptr %73, align 8
  %75 = zext i8 %74 to i32
  %76 = getelementptr inbounds nuw i8, ptr %12, i64 169
  %77 = load i8, ptr %76, align 1
  %78 = zext i8 %77 to i32
  tail call void @av1_predict_intra_block(ptr noundef %0, ptr noundef nonnull %1, i32 noundef %75, i32 noundef %78, i8 noundef zeroext %5, i8 noundef zeroext %28, i32 noundef %36, i32 noundef %32, i8 noundef zeroext 5, ptr noundef %21, i32 noundef %15, ptr noundef %21, i32 noundef %15, i32 noundef %3, i32 noundef %4, i32 noundef %2)
  %79 = getelementptr inbounds i8, ptr %1, i64 47640
  %80 = load i32, ptr %79, align 4
  %.not73 = icmp eq i32 %80, 0
  br i1 %.not73, label %86, label %81

81:                                               ; preds = %72
  %82 = zext i8 %5 to i64
  %83 = getelementptr inbounds [19 x i32], ptr @tx_size_wide, i64 0, i64 %82
  %84 = load i32, ptr %83, align 4
  tail call void @cfl_store_dc_pred(ptr noundef nonnull %1, ptr noundef %21, i8 noundef zeroext %66, i32 noundef %84) #11
  store i32 1, ptr %69, align 4
  br label %86

85:                                               ; preds = %64
  tail call void @cfl_load_dc_pred(ptr noundef nonnull %1, ptr noundef %21, i32 noundef %15, i8 noundef zeroext %5, i8 noundef zeroext %66) #11
  br label %86

86:                                               ; preds = %72, %81, %85
  tail call void @cfl_predict_block(ptr noundef nonnull %1, ptr noundef %21, i32 noundef %15, i8 noundef zeroext %5, i32 noundef %2) #11
  br label %87

87:                                               ; preds = %.split, %.split72, %86
  ret void
}